     1 00000000                                 [FORMAT "WCOFF"]
     2 00000000                                 [INSTRSET "i486p"]
     3 00000000                                 [OPTIMIZE 1]
     4 00000000                                 [OPTION 1]
     5 00000000                                 [BITS 32]
     6 00000000                                 	EXTERN	_io_out8
     7 00000000                                 	EXTERN	_io_in8
     8 00000000                                 	EXTERN	_queue8_push
     9 00000000                                 [FILE "int.c"]
    10                                          [SECTION .text]
    11 00000000                                 	GLOBAL	_init_pic
    12 00000000                                 _init_pic:
    13 00000000 55                              	PUSH	EBP
    14 00000001 89 E5                           	MOV	EBP,ESP
    15 00000003 68 000000FF                     	PUSH	255
    16 00000008 6A 21                           	PUSH	33
    17 0000000A E8 [00000000]                   	CALL	_io_out8
    18 0000000F 68 000000FF                     	PUSH	255
    19 00000014 68 000000A1                     	PUSH	161
    20 00000019 E8 [00000000]                   	CALL	_io_out8
    21 0000001E 6A 11                           	PUSH	17
    22 00000020 6A 20                           	PUSH	32
    23 00000022 E8 [00000000]                   	CALL	_io_out8
    24 00000027 6A 20                           	PUSH	32
    25 00000029 6A 21                           	PUSH	33
    26 0000002B E8 [00000000]                   	CALL	_io_out8
    27 00000030 83 C4 20                        	ADD	ESP,32
    28 00000033 6A 04                           	PUSH	4
    29 00000035 6A 21                           	PUSH	33
    30 00000037 E8 [00000000]                   	CALL	_io_out8
    31 0000003C 6A 01                           	PUSH	1
    32 0000003E 6A 21                           	PUSH	33
    33 00000040 E8 [00000000]                   	CALL	_io_out8
    34 00000045 6A 11                           	PUSH	17
    35 00000047 68 000000A0                     	PUSH	160
    36 0000004C E8 [00000000]                   	CALL	_io_out8
    37 00000051 6A 28                           	PUSH	40
    38 00000053 68 000000A1                     	PUSH	161
    39 00000058 E8 [00000000]                   	CALL	_io_out8
    40 0000005D 83 C4 20                        	ADD	ESP,32
    41 00000060 6A 02                           	PUSH	2
    42 00000062 68 000000A1                     	PUSH	161
    43 00000067 E8 [00000000]                   	CALL	_io_out8
    44 0000006C 6A 01                           	PUSH	1
    45 0000006E 68 000000A1                     	PUSH	161
    46 00000073 E8 [00000000]                   	CALL	_io_out8
    47 00000078 68 000000FB                     	PUSH	251
    48 0000007D 6A 21                           	PUSH	33
    49 0000007F E8 [00000000]                   	CALL	_io_out8
    50 00000084 68 000000FF                     	PUSH	255
    51 00000089 68 000000A1                     	PUSH	161
    52 0000008E E8 [00000000]                   	CALL	_io_out8
    53 00000093 C9                              	LEAVE
    54 00000094 C3                              	RET
    55 00000095                                 	GLOBAL	_inthandler21
    56 00000095                                 _inthandler21:
    57 00000095 55                              	PUSH	EBP
    58 00000096 89 E5                           	MOV	EBP,ESP
    59 00000098 83 EC 10                        	SUB	ESP,16
    60 0000009B 6A 61                           	PUSH	97
    61 0000009D 6A 20                           	PUSH	32
    62 0000009F E8 [00000000]                   	CALL	_io_out8
    63 000000A4 6A 60                           	PUSH	96
    64 000000A6 E8 [00000000]                   	CALL	_io_in8
    65 000000AB 0F B6 C0                        	MOVZX	EAX,AL
    66 000000AE 50                              	PUSH	EAX
    67 000000AF 68 [00000000]                   	PUSH	_keyBoardBuffer
    68 000000B4 E8 [00000000]                   	CALL	_queue8_push
    69 000000B9 C9                              	LEAVE
    70 000000BA C3                              	RET
    71 000000BB                                 	GLOBAL	_inthandler2c
    72 000000BB                                 _inthandler2c:
    73 000000BB 55                              	PUSH	EBP
    74 000000BC 89 E5                           	MOV	EBP,ESP
    75 000000BE 6A 64                           	PUSH	100
    76 000000C0 68 000000A0                     	PUSH	160
    77 000000C5 E8 [00000000]                   	CALL	_io_out8
    78 000000CA 6A 62                           	PUSH	98
    79 000000CC 6A 20                           	PUSH	32
    80 000000CE E8 [00000000]                   	CALL	_io_out8
    81 000000D3 6A 60                           	PUSH	96
    82 000000D5 E8 [00000000]                   	CALL	_io_in8
    83 000000DA 0F B6 C0                        	MOVZX	EAX,AL
    84 000000DD 50                              	PUSH	EAX
    85 000000DE 68 [00000020]                   	PUSH	_mouseBuffer
    86 000000E3 E8 [00000000]                   	CALL	_queue8_push
    87 000000E8 C9                              	LEAVE
    88 000000E9 C3                              	RET
    89 000000EA                                 	GLOBAL	_inthandler27
    90 000000EA                                 _inthandler27:
    91 000000EA 55                              	PUSH	EBP
    92 000000EB 89 E5                           	MOV	EBP,ESP
    93 000000ED 6A 67                           	PUSH	103
    94 000000EF 6A 20                           	PUSH	32
    95 000000F1 E8 [00000000]                   	CALL	_io_out8
    96 000000F6 C9                              	LEAVE
    97 000000F7 C3                              	RET
    98 000000F8                                 	GLOBAL	_keyBoardBuffer
    99                                          [SECTION .data]
   100 00000000                                 	ALIGNB	16
   101 00000000                                 _keyBoardBuffer:
   102 00000000 00 00 00 00 00 00 00 00 00 00   	RESB	28
       0000000A 00 00 00 00 00 00 00 00 00 00 
       00000014 00 00 00 00 00 00 00 00 
   103 0000001C                                 	GLOBAL	_mouseBuffer
   104                                          [SECTION .data]
   105 0000001C 00 00 00 00                     	ALIGNB	16
   106 00000020                                 _mouseBuffer:
   107 00000020 00 00 00 00 00 00 00 00 00 00   	RESB	28
       0000002A 00 00 00 00 00 00 00 00 00 00 
       00000034 00 00 00 00 00 00 00 00 
